target datalayout = "e-m:e-p270:32:32-p271:32:32-p272:64:64-i64:64-i128:128-f80:128-n8:16:32:64-S128"
target triple = "x86_64-pc-linux-gnu"

%"class.cv::hfs::HfsCore" = type { %"struct.cv::hfs::HfsSettings", %"class.std::vector", %"class.std::vector", %"struct.cv::Ptr" }
%"struct.cv::hfs::HfsSettings" = type { float, i32, float, i32, %"struct.cv::hfs::slic::slicSettings" }
%"struct.cv::hfs::slic::slicSettings" = type { %"class.cv::hfs::orutils::Vector2", i32, i32, float }
%"class.cv::hfs::orutils::Vector2" = type { %"struct.cv::hfs::orutils::Vector2_" }
%"struct.cv::hfs::orutils::Vector2_" = type { i32, i32 }
%"class.std::vector" = type { %"struct.std::_Vector_base" }
%"struct.std::_Vector_base" = type { %"struct.std::_Vector_base<float, std::allocator<float>>::_Vector_impl" }
%"struct.std::_Vector_base<float, std::allocator<float>>::_Vector_impl" = type { %"struct.std::_Vector_base<float, std::allocator<float>>::_Vector_impl_data" }
%"struct.std::_Vector_base<float, std::allocator<float>>::_Vector_impl_data" = type { ptr, ptr, ptr }
%"struct.cv::Ptr" = type { %"class.std::shared_ptr" }
%"class.std::shared_ptr" = type { %"class.std::__shared_ptr" }
%"class.std::__shared_ptr" = type { ptr, %"class.std::__shared_count" }
%"class.std::__shared_count" = type { ptr }
%"class.cv::Mat" = type { i32, i32, i32, i32, ptr, ptr, ptr, ptr, ptr, ptr, %"struct.cv::MatSize", %"struct.cv::MatStep" }
%"struct.cv::MatSize" = type { ptr }
%"struct.cv::MatStep" = type { ptr, [2 x i64] }
%"class.cv::_OutputArray" = type { %"class.cv::_InputArray" }
%"class.cv::_InputArray" = type { i32, ptr, %"class.cv::Size_" }
%"class.cv::Size_" = type { i32, i32 }

; Function Attrs: mustprogress nounwind uwtable
define linkonce_odr hidden noundef ptr @_ZNKSt12__shared_ptrIN2cv3hfs9MagnitudeELN9__gnu_cxx12_Lock_policyE2EE3getEv(ptr noundef nonnull align 8 dereferenceable(16) %0) #5 comdat align 2 {
  %2 = alloca ptr, align 8
  store ptr %0, ptr %2, align 8, !tbaa !51
  %3 = load ptr, ptr %2, align 8
  %4 = getelementptr inbounds nuw %"class.std::__shared_ptr", ptr %3, i32 0, i32 0
  %5 = load ptr, ptr %4, align 8, !tbaa !349
  ret ptr %5
}

; Function Attrs: inlinehint mustprogress uwtable
define linkonce_odr hidden void @_ZN2cv11_InputArrayC2Ev(ptr noundef nonnull align 8 dereferenceable(24) %0) unnamed_addr #4 comdat align 2 {
  %2 = alloca ptr, align 8
  store ptr %0, ptr %2, align 8, !tbaa !233
  %3 = load ptr, ptr %2, align 8
  %4 = getelementptr inbounds nuw %"class.cv::_InputArray", ptr %3, i32 0, i32 2
  call void @_ZN2cv5Size_IiEC2Ev(ptr noundef nonnull align 4 dereferenceable(8) %4)
  call void @_ZN2cv11_InputArray4initEiPKv(ptr noundef nonnull align 8 dereferenceable(24) %3, i32 noundef 0, ptr noundef null)
  ret void
}

; Function Attrs: inlinehint mustprogress nounwind uwtable
define linkonce_odr hidden void @_ZN2cv11_InputArray4initEiPKv(ptr noundef nonnull align 8 dereferenceable(24) %0, i32 noundef %1, ptr noundef %2) #1 comdat align 2 {
  %4 = alloca ptr, align 8
  %5 = alloca i32, align 4
  %6 = alloca ptr, align 8
  store ptr %0, ptr %4, align 8, !tbaa !233
  store i32 %1, ptr %5, align 4, !tbaa !8
  store ptr %2, ptr %6, align 8, !tbaa !293
  %7 = load ptr, ptr %4, align 8
  %8 = load i32, ptr %5, align 4, !tbaa !8
  %9 = getelementptr inbounds nuw %"class.cv::_InputArray", ptr %7, i32 0, i32 0
  store i32 %8, ptr %9, align 8, !tbaa !294
  %10 = load ptr, ptr %6, align 8, !tbaa !293
  %11 = getelementptr inbounds nuw %"class.cv::_InputArray", ptr %7, i32 0, i32 1
  store ptr %10, ptr %11, align 8, !tbaa !297
  ret void
}

; Function Attrs: inlinehint mustprogress nounwind uwtable
define linkonce_odr hidden void @_ZN2cv5Size_IiEC2Ev(ptr noundef nonnull align 4 dereferenceable(8) %0) unnamed_addr #1 comdat align 2 {
  %2 = alloca ptr, align 8
  store ptr %0, ptr %2, align 8, !tbaa !298
  %3 = load ptr, ptr %2, align 8
  %4 = getelementptr inbounds nuw %"class.cv::Size_", ptr %3, i32 0, i32 0
  store i32 0, ptr %4, align 4, !tbaa !300
  %5 = getelementptr inbounds nuw %"class.cv::Size_", ptr %3, i32 0, i32 1
  store i32 0, ptr %5, align 4, !tbaa !301
  ret void
}

; Function Attrs: mustprogress nounwind uwtable
define linkonce_odr hidden noundef ptr @_ZNK2cv3PtrINS_3hfs9MagnitudeEEptEv(ptr noundef nonnull align 8 dereferenceable(16) %0) #5 comdat align 2 {
  %2 = alloca ptr, align 8
  store ptr %0, ptr %2, align 8, !tbaa !46
  %3 = load ptr, ptr %2, align 8
  %4 = call noundef ptr @_ZNKSt12__shared_ptrIN2cv3hfs9MagnitudeELN9__gnu_cxx12_Lock_policyE2EE3getEv(ptr noundef nonnull align 8 dereferenceable(16) %3) #22
  ret ptr %4
}

; Function Attrs: inlinehint mustprogress nounwind uwtable
define linkonce_odr hidden void @_ZN2cv11_InputArrayD2Ev(ptr noundef nonnull align 8 dereferenceable(24) %0) unnamed_addr #1 comdat align 2 {
  %2 = alloca ptr, align 8
  store ptr %0, ptr %2, align 8, !tbaa !233
  ret void
}

; Function Attrs: inlinehint mustprogress uwtable
define linkonce_odr hidden void @_ZN2cv12_OutputArrayC2ERNS_3MatE(ptr noundef nonnull align 8 dereferenceable(24) %0, ptr noundef nonnull align 8 dereferenceable(96) %1) unnamed_addr #4 comdat align 2 personality ptr @__gxx_personality_v0 {
  %3 = alloca ptr, align 8
  %4 = alloca ptr, align 8
  %5 = alloca ptr, align 8
  %6 = alloca i32, align 4
  store ptr %0, ptr %3, align 8, !tbaa !99
  store ptr %1, ptr %4, align 8, !tbaa !55
  %7 = load ptr, ptr %3, align 8
  call void @_ZN2cv11_InputArrayC2Ev(ptr noundef nonnull align 8 dereferenceable(24) %7)
  %8 = load ptr, ptr %4, align 8, !tbaa !55
  invoke void @_ZN2cv11_InputArray4initEiPKv(ptr noundef nonnull align 8 dereferenceable(24) %7, i32 noundef 33619968, ptr noundef %8)
          to label %9 unwind label %10

9:                                                ; preds = %2
  ret void

10:                                               ; preds = %2
  %11 = landingpad { ptr, i32 }
          cleanup
  %12 = extractvalue { ptr, i32 } %11, 0
  store ptr %12, ptr %5, align 8
  %13 = extractvalue { ptr, i32 } %11, 1
  store i32 %13, ptr %6, align 4
  call void @_ZN2cv11_InputArrayD2Ev(ptr noundef nonnull align 8 dereferenceable(24) %7) #22
  br label %14

14:                                               ; preds = %10
  %15 = load ptr, ptr %5, align 8
  %16 = load i32, ptr %6, align 4
  %17 = insertvalue { ptr, i32 } poison, ptr %15, 0
  %18 = insertvalue { ptr, i32 } %17, i32 %16, 1
  resume { ptr, i32 } %18
}

; Function Attrs: inlinehint mustprogress uwtable
define linkonce_odr hidden void @_ZN2cv11_InputArrayC2ERKNS_3MatE(ptr noundef nonnull align 8 dereferenceable(24) %0, ptr noundef nonnull align 8 dereferenceable(96) %1) unnamed_addr #4 comdat align 2 {
  %3 = alloca ptr, align 8
  %4 = alloca ptr, align 8
  store ptr %0, ptr %3, align 8, !tbaa !233
  store ptr %1, ptr %4, align 8, !tbaa !55
  %5 = load ptr, ptr %3, align 8
  %6 = getelementptr inbounds nuw %"class.cv::_InputArray", ptr %5, i32 0, i32 2
  call void @_ZN2cv5Size_IiEC2Ev(ptr noundef nonnull align 4 dereferenceable(8) %6)
  %7 = load ptr, ptr %4, align 8, !tbaa !55
  call void @_ZN2cv11_InputArray4initEiPKv(ptr noundef nonnull align 8 dereferenceable(24) %5, i32 noundef 16842752, ptr noundef %7)
  ret void
}

; Function Attrs: mustprogress uwtable
define hidden noundef i32 @_ZN2cv3hfs7HfsCore15processImageCpuERKNS_3MatERS2_(ptr noundef nonnull align 8 dereferenceable(104) %0, ptr noundef nonnull align 8 dereferenceable(96) %1, ptr noundef nonnull align 8 dereferenceable(96) %2) #3 align 2 personality ptr @__gxx_personality_v0 {
  %4 = alloca ptr, align 8
  %5 = alloca ptr, align 8
  %6 = alloca ptr, align 8
  %7 = alloca %"class.cv::Mat", align 8
  %8 = alloca %"class.cv::Mat", align 8
  %9 = alloca %"class.cv::Mat", align 8
  %10 = alloca %"class.cv::Mat", align 8
  %11 = alloca i32, align 4
  %12 = alloca %"class.cv::Mat", align 8
  %13 = alloca ptr, align 8
  %14 = alloca i32, align 4
  %15 = alloca %"class.cv::_InputArray", align 8
  %16 = alloca %"class.cv::_OutputArray", align 8
  store ptr %0, ptr %4, align 8, !tbaa !13
  store ptr %1, ptr %5, align 8, !tbaa !55
  store ptr %2, ptr %6, align 8, !tbaa !55
  %17 = load ptr, ptr %4, align 8
  call void @llvm.lifetime.start.p0(i64 96, ptr %7) #22
  call void @_ZN2cv3MatC1Ev(ptr noundef nonnull align 8 dereferenceable(96) %7) #22
  call void @llvm.lifetime.start.p0(i64 96, ptr %8) #22
  call void @_ZN2cv3MatC1Ev(ptr noundef nonnull align 8 dereferenceable(96) %8) #22
  call void @llvm.lifetime.start.p0(i64 96, ptr %9) #22
  call void @_ZN2cv3MatC1Ev(ptr noundef nonnull align 8 dereferenceable(96) %9) #22
  call void @llvm.lifetime.start.p0(i64 96, ptr %10) #22
  call void @_ZN2cv3MatC1Ev(ptr noundef nonnull align 8 dereferenceable(96) %10) #22
  call void @llvm.lifetime.start.p0(i64 4, ptr %11) #22
  call void @llvm.lifetime.start.p0(i64 96, ptr %12) #22
  %18 = load ptr, ptr %5, align 8, !tbaa !55
  invoke void @_ZN2cv3hfs7HfsCore13getSLICIdxCpuERKNS_3MatERi(ptr dead_on_unwind writable sret(%"class.cv::Mat") align 8 %12, ptr noundef nonnull align 8 dereferenceable(104) %17, ptr noundef nonnull align 8 dereferenceable(96) %18, ptr noundef nonnull align 4 dereferenceable(4) %11)
          to label %19 unwind label %46

19:                                               ; preds = %3
  %20 = invoke noundef nonnull align 8 dereferenceable(96) ptr @_ZN2cv3MataSEOS0_(ptr noundef nonnull align 8 dereferenceable(96) %7, ptr noundef nonnull align 8 dereferenceable(96) %12)
          to label %21 unwind label %50

21:                                               ; preds = %19
  call void @_ZN2cv3MatD1Ev(ptr noundef nonnull align 8 dereferenceable(96) %12) #22
  call void @llvm.lifetime.end.p0(i64 96, ptr %12) #22
  call void @llvm.lifetime.start.p0(i64 24, ptr %15) #22
  %22 = load ptr, ptr %5, align 8, !tbaa !55
  invoke void @_ZN2cv11_InputArrayC2ERKNS_3MatE(ptr noundef nonnull align 8 dereferenceable(24) %15, ptr noundef nonnull align 8 dereferenceable(96) %22)
          to label %23 unwind label %55

23:                                               ; preds = %21
  call void @llvm.lifetime.start.p0(i64 24, ptr %16) #22
  invoke void @_ZN2cv12_OutputArrayC2ERNS_3MatE(ptr noundef nonnull align 8 dereferenceable(24) %16, ptr noundef nonnull align 8 dereferenceable(96) %8)
          to label %24 unwind label %59

24:                                               ; preds = %23
  invoke void @_ZN2cv8cvtColorERKNS_11_InputArrayERKNS_12_OutputArrayEiiNS_13AlgorithmHintE(ptr noundef nonnull align 8 dereferenceable(24) %15, ptr noundef nonnull align 8 dereferenceable(24) %16, i32 noundef 44, i32 noundef 0, i32 noundef 0)
          to label %25 unwind label %63

25:                                               ; preds = %24
  call void @_ZN2cv11_InputArrayD2Ev(ptr noundef nonnull align 8 dereferenceable(24) %16) #22
  call void @llvm.lifetime.end.p0(i64 24, ptr %16) #22
  call void @_ZN2cv11_InputArrayD2Ev(ptr noundef nonnull align 8 dereferenceable(24) %15) #22
  call void @llvm.lifetime.end.p0(i64 24, ptr %15) #22
  %26 = getelementptr inbounds nuw %"class.cv::hfs::HfsCore", ptr %17, i32 0, i32 3
  %27 = call noundef ptr @_ZNK2cv3PtrINS_3hfs9MagnitudeEEptEv(ptr noundef nonnull align 8 dereferenceable(16) %26) #22
  %28 = load ptr, ptr %5, align 8, !tbaa !55
  invoke void @_ZN2cv3hfs9Magnitude13processImgCpuERKNS_3MatERS2_(ptr noundef nonnull align 8 dereferenceable(88) %27, ptr noundef nonnull align 8 dereferenceable(96) %28, ptr noundef nonnull align 8 dereferenceable(96) %9)
          to label %29 unwind label %69

29:                                               ; preds = %25
  %30 = getelementptr inbounds nuw %"class.cv::hfs::HfsCore", ptr %17, i32 0, i32 0
  %31 = getelementptr inbounds nuw %"struct.cv::hfs::HfsSettings", ptr %30, i32 0, i32 0
  %32 = load float, ptr %31, align 8, !tbaa !17
  %33 = getelementptr inbounds nuw %"class.cv::hfs::HfsCore", ptr %17, i32 0, i32 0
  %34 = getelementptr inbounds nuw %"struct.cv::hfs::HfsSettings", ptr %33, i32 0, i32 1
  %35 = load i32, ptr %34, align 4, !tbaa !34
  invoke void @_ZN2cv3hfs7HfsCore16getSegmentationIERKNS_3MatES4_S4_fiRS2_Ri(ptr noundef nonnull align 8 dereferenceable(104) %17, ptr noundef nonnull align 8 dereferenceable(96) %8, ptr noundef nonnull align 8 dereferenceable(96) %9, ptr noundef nonnull align 8 dereferenceable(96) %7, float noundef %32, i32 noundef %35, ptr noundef nonnull align 8 dereferenceable(96) %10, ptr noundef nonnull align 4 dereferenceable(4) %11)
          to label %36 unwind label %69

36:                                               ; preds = %29
  %37 = getelementptr inbounds nuw %"class.cv::hfs::HfsCore", ptr %17, i32 0, i32 0
  %38 = getelementptr inbounds nuw %"struct.cv::hfs::HfsSettings", ptr %37, i32 0, i32 2
  %39 = load float, ptr %38, align 8, !tbaa !35
  %40 = getelementptr inbounds nuw %"class.cv::hfs::HfsCore", ptr %17, i32 0, i32 0
  %41 = getelementptr inbounds nuw %"struct.cv::hfs::HfsSettings", ptr %40, i32 0, i32 3
  %42 = load i32, ptr %41, align 4, !tbaa !36
  %43 = load ptr, ptr %6, align 8, !tbaa !55
  invoke void @_ZN2cv3hfs7HfsCore17getSegmentationIIERKNS_3MatES4_S4_fiRS2_Ri(ptr noundef nonnull align 8 dereferenceable(104) %17, ptr noundef nonnull align 8 dereferenceable(96) %8, ptr noundef nonnull align 8 dereferenceable(96) %9, ptr noundef nonnull align 8 dereferenceable(96) %10, float noundef %39, i32 noundef %42, ptr noundef nonnull align 8 dereferenceable(96) %43, ptr noundef nonnull align 4 dereferenceable(4) %11)
          to label %44 unwind label %69

44:                                               ; preds = %36
  %45 = load i32, ptr %11, align 4, !tbaa !8
  call void @llvm.lifetime.end.p0(i64 4, ptr %11) #22
  call void @_ZN2cv3MatD1Ev(ptr noundef nonnull align 8 dereferenceable(96) %10) #22
  call void @llvm.lifetime.end.p0(i64 96, ptr %10) #22
  call void @_ZN2cv3MatD1Ev(ptr noundef nonnull align 8 dereferenceable(96) %9) #22
  call void @llvm.lifetime.end.p0(i64 96, ptr %9) #22
  call void @_ZN2cv3MatD1Ev(ptr noundef nonnull align 8 dereferenceable(96) %8) #22
  call void @llvm.lifetime.end.p0(i64 96, ptr %8) #22
  call void @_ZN2cv3MatD1Ev(ptr noundef nonnull align 8 dereferenceable(96) %7) #22
  call void @llvm.lifetime.end.p0(i64 96, ptr %7) #22
  ret i32 %45

46:                                               ; preds = %3
  %47 = landingpad { ptr, i32 }
          cleanup
  %48 = extractvalue { ptr, i32 } %47, 0
  store ptr %48, ptr %13, align 8
  %49 = extractvalue { ptr, i32 } %47, 1
  store i32 %49, ptr %14, align 4
  br label %54

50:                                               ; preds = %19
  %51 = landingpad { ptr, i32 }
          cleanup
  %52 = extractvalue { ptr, i32 } %51, 0
  store ptr %52, ptr %13, align 8
  %53 = extractvalue { ptr, i32 } %51, 1
  store i32 %53, ptr %14, align 4
  call void @_ZN2cv3MatD1Ev(ptr noundef nonnull align 8 dereferenceable(96) %12) #22
  br label %54

54:                                               ; preds = %50, %46
  call void @llvm.lifetime.end.p0(i64 96, ptr %12) #22
  br label %73

55:                                               ; preds = %21
  %56 = landingpad { ptr, i32 }
          cleanup
  %57 = extractvalue { ptr, i32 } %56, 0
  store ptr %57, ptr %13, align 8
  %58 = extractvalue { ptr, i32 } %56, 1
  store i32 %58, ptr %14, align 4
  br label %68

59:                                               ; preds = %23
  %60 = landingpad { ptr, i32 }
          cleanup
  %61 = extractvalue { ptr, i32 } %60, 0
  store ptr %61, ptr %13, align 8
  %62 = extractvalue { ptr, i32 } %60, 1
  store i32 %62, ptr %14, align 4
  br label %67

63:                                               ; preds = %24
  %64 = landingpad { ptr, i32 }
          cleanup
  %65 = extractvalue { ptr, i32 } %64, 0
  store ptr %65, ptr %13, align 8
  %66 = extractvalue { ptr, i32 } %64, 1
  store i32 %66, ptr %14, align 4
  call void @_ZN2cv11_InputArrayD2Ev(ptr noundef nonnull align 8 dereferenceable(24) %16) #22
  br label %67

67:                                               ; preds = %63, %59
  call void @llvm.lifetime.end.p0(i64 24, ptr %16) #22
  call void @_ZN2cv11_InputArrayD2Ev(ptr noundef nonnull align 8 dereferenceable(24) %15) #22
  br label %68

68:                                               ; preds = %67, %55
  call void @llvm.lifetime.end.p0(i64 24, ptr %15) #22
  br label %73

69:                                               ; preds = %36, %29, %25
  %70 = landingpad { ptr, i32 }
          cleanup
  %71 = extractvalue { ptr, i32 } %70, 0
  store ptr %71, ptr %13, align 8
  %72 = extractvalue { ptr, i32 } %70, 1
  store i32 %72, ptr %14, align 4
  br label %73

73:                                               ; preds = %69, %68, %54
  call void @llvm.lifetime.end.p0(i64 4, ptr %11) #22
  call void @_ZN2cv3MatD1Ev(ptr noundef nonnull align 8 dereferenceable(96) %10) #22
  call void @llvm.lifetime.end.p0(i64 96, ptr %10) #22
  call void @_ZN2cv3MatD1Ev(ptr noundef nonnull align 8 dereferenceable(96) %9) #22
  call void @llvm.lifetime.end.p0(i64 96, ptr %9) #22
  call void @_ZN2cv3MatD1Ev(ptr noundef nonnull align 8 dereferenceable(96) %8) #22
  call void @llvm.lifetime.end.p0(i64 96, ptr %8) #22
  call void @_ZN2cv3MatD1Ev(ptr noundef nonnull align 8 dereferenceable(96) %7) #22
  call void @llvm.lifetime.end.p0(i64 96, ptr %7) #22
  br label %74

74:                                               ; preds = %73
  %75 = load ptr, ptr %13, align 8
  %76 = load i32, ptr %14, align 4
  %77 = insertvalue { ptr, i32 } poison, ptr %75, 0
  %78 = insertvalue { ptr, i32 } %77, i32 %76, 1
  resume { ptr, i32 } %78
}