; Function Attrs: mustprogress uwtable
define hidden noundef i32 @_ZN2cv3hfs7HfsCore15processImageCpuERKNS_3MatERS2_(ptr noundef nonnull readonly align 8 captures(none) dereferenceable(104) %0, ptr noundef nonnull align 8 dereferenceable(96) %1, ptr noundef nonnull align 8 dereferenceable(96) %2) local_unnamed_addr #0 align 2 personality ptr @__gxx_personality_v0 {
  %4 = alloca %"class.cv::Mat", align 8
  %5 = alloca %"class.cv::Mat", align 8
  %6 = alloca %"class.cv::Mat", align 8
  %7 = alloca %"class.cv::Mat", align 8
  %8 = alloca i32, align 4
  %9 = alloca %"class.cv::Mat", align 8
  %10 = alloca %"class.cv::_InputArray", align 8
  %11 = alloca %"class.cv::_OutputArray", align 8
  call void @llvm.lifetime.start.p0(i64 96, ptr nonnull %4) #24
  call void @_ZN2cv3MatC1Ev(ptr noundef nonnull align 8 dereferenceable(96) %4) #24
  call void @llvm.lifetime.start.p0(i64 96, ptr nonnull %5) #24
  call void @_ZN2cv3MatC1Ev(ptr noundef nonnull align 8 dereferenceable(96) %5) #24
  call void @llvm.lifetime.start.p0(i64 96, ptr nonnull %6) #24
  call void @_ZN2cv3MatC1Ev(ptr noundef nonnull align 8 dereferenceable(96) %6) #24
  call void @llvm.lifetime.start.p0(i64 96, ptr nonnull %7) #24
  call void @_ZN2cv3MatC1Ev(ptr noundef nonnull align 8 dereferenceable(96) %7) #24
  call void @llvm.lifetime.start.p0(i64 4, ptr nonnull %8) #24
  call void @llvm.lifetime.start.p0(i64 96, ptr nonnull %9) #24
  invoke void @_ZN2cv3hfs7HfsCore13getSLICIdxCpuERKNS_3MatERi(ptr dead_on_unwind nonnull writable sret(%"class.cv::Mat") align 8 %9, ptr noundef nonnull align 8 dereferenceable(104) %0, ptr noundef nonnull align 8 dereferenceable(96) %1, ptr noundef nonnull align 4 dereferenceable(4) %8)
          to label %12 unwind label %34

12:                                               ; preds = %3
  %13 = invoke noundef nonnull align 8 dereferenceable(96) ptr @_ZN2cv3MataSEOS0_(ptr noundef nonnull align 8 dereferenceable(96) %4, ptr noundef nonnull align 8 dereferenceable(96) %9)
          to label %14 unwind label %36

14:                                               ; preds = %12
  call void @_ZN2cv3MatD1Ev(ptr noundef nonnull align 8 dereferenceable(96) %9) #24
  call void @llvm.lifetime.end.p0(i64 96, ptr nonnull %9) #24
  call void @llvm.lifetime.start.p0(i64 24, ptr nonnull %10) #24
  %15 = getelementptr inbounds nuw i8, ptr %10, i64 16
  store i32 0, ptr %15, align 8, !tbaa !215
  %16 = getelementptr inbounds nuw i8, ptr %10, i64 20
  store i32 0, ptr %16, align 4, !tbaa !216
  store i32 16842752, ptr %10, align 8, !tbaa !79
  %17 = getelementptr inbounds nuw i8, ptr %10, i64 8
  store ptr %1, ptr %17, align 8, !tbaa !82
  call void @llvm.lifetime.start.p0(i64 24, ptr nonnull %11) #24
  %18 = getelementptr inbounds nuw i8, ptr %11, i64 8
  %19 = getelementptr inbounds nuw i8, ptr %11, i64 16
  store i64 0, ptr %19, align 8
  store i32 33619968, ptr %11, align 8, !tbaa !79
  store ptr %5, ptr %18, align 8, !tbaa !82
  invoke void @_ZN2cv8cvtColorERKNS_11_InputArrayERKNS_12_OutputArrayEiiNS_13AlgorithmHintE(ptr noundef nonnull align 8 dereferenceable(24) %10, ptr noundef nonnull align 8 dereferenceable(24) %11, i32 noundef 44, i32 noundef 0, i32 noundef 0)
          to label %20 unwind label %39

20:                                               ; preds = %14
  call void @llvm.lifetime.end.p0(i64 24, ptr nonnull %11) #24
  call void @llvm.lifetime.end.p0(i64 24, ptr nonnull %10) #24
  %21 = getelementptr inbounds nuw i8, ptr %0, i64 88
  %22 = load ptr, ptr %21, align 8, !tbaa !42
  invoke void @_ZN2cv3hfs9Magnitude13processImgCpuERKNS_3MatERS2_(ptr noundef nonnull align 8 dereferenceable(88) %22, ptr noundef nonnull align 8 dereferenceable(96) %1, ptr noundef nonnull align 8 dereferenceable(96) %6)
          to label %23 unwind label %41

23:                                               ; preds = %20
  %24 = load float, ptr %0, align 8, !tbaa !3
  %25 = getelementptr inbounds nuw i8, ptr %0, i64 4
  %26 = load i32, ptr %25, align 4, !tbaa !25
  invoke void @_ZN2cv3hfs7HfsCore16getSegmentationIERKNS_3MatES4_S4_fiRS2_Ri(ptr noundef nonnull align 8 dereferenceable(104) %0, ptr noundef nonnull align 8 dereferenceable(96) %5, ptr noundef nonnull align 8 dereferenceable(96) %6, ptr noundef nonnull align 8 dereferenceable(96) %4, float noundef %24, i32 noundef %26, ptr noundef nonnull align 8 dereferenceable(96) %7, ptr noundef nonnull align 4 dereferenceable(4) %8)
          to label %27 unwind label %41

27:                                               ; preds = %23
  %28 = getelementptr inbounds nuw i8, ptr %0, i64 8
  %29 = load float, ptr %28, align 8, !tbaa !26
  %30 = getelementptr inbounds nuw i8, ptr %0, i64 12
  %31 = load i32, ptr %30, align 4, !tbaa !27
  invoke void @_ZN2cv3hfs7HfsCore17getSegmentationIIERKNS_3MatES4_S4_fiRS2_Ri(ptr noundef nonnull align 8 dereferenceable(104) %0, ptr noundef nonnull align 8 dereferenceable(96) %5, ptr noundef nonnull align 8 dereferenceable(96) %6, ptr noundef nonnull align 8 dereferenceable(96) %7, float noundef %29, i32 noundef %31, ptr noundef nonnull align 8 dereferenceable(96) %2, ptr noundef nonnull align 4 dereferenceable(4) %8)
          to label %32 unwind label %41

32:                                               ; preds = %27
  %33 = load i32, ptr %8, align 4, !tbaa !45
  call void @llvm.lifetime.end.p0(i64 4, ptr nonnull %8) #24
  call void @_ZN2cv3MatD1Ev(ptr noundef nonnull align 8 dereferenceable(96) %7) #24
  call void @llvm.lifetime.end.p0(i64 96, ptr nonnull %7) #24
  call void @_ZN2cv3MatD1Ev(ptr noundef nonnull align 8 dereferenceable(96) %6) #24
  call void @llvm.lifetime.end.p0(i64 96, ptr nonnull %6) #24
  call void @_ZN2cv3MatD1Ev(ptr noundef nonnull align 8 dereferenceable(96) %5) #24
  call void @llvm.lifetime.end.p0(i64 96, ptr nonnull %5) #24
  call void @_ZN2cv3MatD1Ev(ptr noundef nonnull align 8 dereferenceable(96) %4) #24
  call void @llvm.lifetime.end.p0(i64 96, ptr nonnull %4) #24
  ret i32 %33

34:                                               ; preds = %3
  %35 = landingpad { ptr, i32 }
          cleanup
  br label %38

36:                                               ; preds = %12
  %37 = landingpad { ptr, i32 }
          cleanup
  call void @_ZN2cv3MatD1Ev(ptr noundef nonnull align 8 dereferenceable(96) %9) #24
  br label %38

38:                                               ; preds = %36, %34
  %.pn = phi { ptr, i32 } [ %37, %36 ], [ %35, %34 ]
  call void @llvm.lifetime.end.p0(i64 96, ptr nonnull %9) #24
  br label %43

39:                                               ; preds = %14
  %40 = landingpad { ptr, i32 }
          cleanup
  call void @llvm.lifetime.end.p0(i64 24, ptr nonnull %11) #24
  call void @llvm.lifetime.end.p0(i64 24, ptr nonnull %10) #24
  br label %43

41:                                               ; preds = %27, %23, %20
  %42 = landingpad { ptr, i32 }
          cleanup
  br label %43

43:                                               ; preds = %41, %39, %38
  %.pn14 = phi { ptr, i32 } [ %42, %41 ], [ %40, %39 ], [ %.pn, %38 ]
  call void @llvm.lifetime.end.p0(i64 4, ptr nonnull %8) #24
  call void @_ZN2cv3MatD1Ev(ptr noundef nonnull align 8 dereferenceable(96) %7) #24
  call void @llvm.lifetime.end.p0(i64 96, ptr nonnull %7) #24
  call void @_ZN2cv3MatD1Ev(ptr noundef nonnull align 8 dereferenceable(96) %6) #24
  call void @llvm.lifetime.end.p0(i64 96, ptr nonnull %6) #24
  call void @_ZN2cv3MatD1Ev(ptr noundef nonnull align 8 dereferenceable(96) %5) #24
  call void @llvm.lifetime.end.p0(i64 96, ptr nonnull %5) #24
  call void @_ZN2cv3MatD1Ev(ptr noundef nonnull align 8 dereferenceable(96) %4) #24
  call void @llvm.lifetime.end.p0(i64 96, ptr nonnull %4) #24
  resume { ptr, i32 } %.pn14
}